target datalayout = "e-m:e-p270:32:32-p271:32:32-p272:64:64-i64:64-i128:128-f80:128-n8:16:32:64-S128"
target triple = "x86_64-pc-linux-gnu"

%struct.pg_enc2name = type { ptr, i32 }
%struct.pg_wchar_tbl = type { ptr, ptr, ptr, ptr, ptr, ptr, i32 }

@DatabaseEncoding = internal global ptr @pg_enc2name_tbl, align 8
@pg_wchar_table = external constant [0 x %struct.pg_wchar_tbl], align 8

; Function Attrs: nounwind uwtable
define dso_local i32 @pg_mblen(ptr noundef %0) #1 {
  %2 = alloca ptr, align 8
  store ptr %0, ptr %2, align 8
  %3 = load ptr, ptr @DatabaseEncoding, align 8
  %4 = getelementptr inbounds nuw %struct.pg_enc2name, ptr %3, i32 0, i32 1
  %5 = load i32, ptr %4, align 8
  %6 = zext i32 %5 to i64
  %7 = getelementptr inbounds nuw [0 x %struct.pg_wchar_tbl], ptr @pg_wchar_table, i64 0, i64 %6
  %8 = getelementptr inbounds nuw %struct.pg_wchar_tbl, ptr %7, i32 0, i32 2
  %9 = load ptr, ptr %8, align 8
  %10 = load ptr, ptr %2, align 8
  %11 = call i32 %9(ptr noundef %10)
  ret i32 %11
}